; Function Attrs: nounwind uwtable
define noalias nonnull ptr @l_Std_Channel_recvSelector___rarg(ptr noundef %0, ptr noundef %1) #1 {
  %3 = ptrtoint ptr %1 to i64
  %4 = and i64 %3, 1
  %.not = icmp eq i64 %4, 0
  br i1 %.not, label %5, label %lean_inc.exit18

5:                                                ; preds = %2
  %.val.i = load i32, ptr %1, align 4, !tbaa !4
  %6 = icmp sgt i32 %.val.i, 0
  br i1 %6, label %7, label %9, !prof !9

7:                                                ; preds = %5
  %8 = add nuw i32 %.val.i, 1
  store i32 %8, ptr %1, align 4, !tbaa !4
  br label %lean_inc.exit18

9:                                                ; preds = %5
  %.not.i = icmp eq i32 %.val.i, 0
  br i1 %.not.i, label %lean_inc.exit18, label %10

10:                                               ; preds = %9
  tail call void @lean_inc_ref_cold(ptr noundef nonnull %1) #7
  br label %lean_inc.exit18

lean_inc.exit18:                                  ; preds = %10, %9, %7, %2
  %11 = tail call ptr @l_Std_CloseableChannel_recvSelector___rarg(ptr noundef %1)
  tail call void @lean_inc_heartbeat() #7
  %12 = tail call noalias ptr @mi_malloc_small(i64 noundef 32) #7
  %13 = icmp eq ptr %12, null
  br i1 %13, label %14, label %lean_alloc_closure.exit

14:                                               ; preds = %lean_inc.exit18
  tail call void @lean_internal_panic_out_of_memory() #8
  unreachable

lean_alloc_closure.exit:                          ; preds = %lean_inc.exit18
  %15 = getelementptr inbounds nuw i8, ptr %12, i64 4
  store i32 1, ptr %12, align 4, !tbaa !4
  store i32 -184549344, ptr %15, align 4
  %16 = getelementptr inbounds nuw i8, ptr %12, i64 8
  store ptr @l_Std_Channel_recvSelector___elambda__3___rarg, ptr %16, align 8, !tbaa !10
  %17 = getelementptr inbounds nuw i8, ptr %12, i64 16
  store i16 2, ptr %17, align 8, !tbaa !12
  %18 = getelementptr inbounds nuw i8, ptr %12, i64 18
  store i16 1, ptr %18, align 2, !tbaa !12
  %19 = getelementptr inbounds nuw i8, ptr %12, i64 24
  store ptr %1, ptr %19, align 8, !tbaa !10
  %20 = ptrtoint ptr %11 to i64
  %21 = and i64 %20, 1
  %.not24 = icmp eq i64 %21, 0
  br i1 %.not24, label %22, label %lean_inc.exit

22:                                               ; preds = %lean_alloc_closure.exit
  %.val.i19 = load i32, ptr %11, align 4, !tbaa !4
  %23 = icmp sgt i32 %.val.i19, 0
  br i1 %23, label %24, label %26, !prof !9

24:                                               ; preds = %22
  %25 = add nuw i32 %.val.i19, 1
  store i32 %25, ptr %11, align 4, !tbaa !4
  br label %lean_inc.exit

26:                                               ; preds = %22
  %.not.i20 = icmp eq i32 %.val.i19, 0
  br i1 %.not.i20, label %lean_inc.exit, label %27

27:                                               ; preds = %26
  tail call void @lean_inc_ref_cold(ptr noundef nonnull %11) #7
  br label %lean_inc.exit

lean_inc.exit:                                    ; preds = %27, %26, %24, %lean_alloc_closure.exit
  tail call void @lean_inc_heartbeat() #7
  %28 = tail call noalias ptr @mi_malloc_small(i64 noundef 40) #7
  %29 = icmp eq ptr %28, null
  br i1 %29, label %30, label %lean_alloc_closure.exit22

30:                                               ; preds = %lean_inc.exit
  tail call void @lean_internal_panic_out_of_memory() #8
  unreachable

lean_alloc_closure.exit22:                        ; preds = %lean_inc.exit
  %31 = getelementptr inbounds nuw i8, ptr %28, i64 4
  store i32 1, ptr %28, align 4, !tbaa !4
  store i32 -184549336, ptr %31, align 4
  %32 = getelementptr inbounds nuw i8, ptr %28, i64 8
  store ptr @l_Std_Channel_recvSelector___elambda__2___rarg, ptr %32, align 8, !tbaa !10
  %33 = getelementptr inbounds nuw i8, ptr %28, i64 16
  store i16 4, ptr %33, align 8, !tbaa !12
  %34 = getelementptr inbounds nuw i8, ptr %28, i64 18
  store i16 2, ptr %34, align 2, !tbaa !12
  %35 = getelementptr inbounds nuw i8, ptr %28, i64 24
  store ptr %0, ptr %35, align 8, !tbaa !10
  %36 = getelementptr inbounds nuw i8, ptr %28, i64 32
  store ptr %11, ptr %36, align 8, !tbaa !10
  tail call void @lean_inc_heartbeat() #7
  %37 = tail call noalias ptr @mi_malloc_small(i64 noundef 32) #7
  %38 = icmp eq ptr %37, null
  br i1 %38, label %39, label %lean_alloc_closure.exit23

39:                                               ; preds = %lean_alloc_closure.exit22
  tail call void @lean_internal_panic_out_of_memory() #8
  unreachable

lean_alloc_closure.exit23:                        ; preds = %lean_alloc_closure.exit22
  %40 = getelementptr inbounds nuw i8, ptr %37, i64 4
  store i32 1, ptr %37, align 4, !tbaa !4
  store i32 -184549344, ptr %40, align 4
  %41 = getelementptr inbounds nuw i8, ptr %37, i64 8
  store ptr @l_Std_Channel_recvSelector___elambda__1___rarg, ptr %41, align 8, !tbaa !10
  %42 = getelementptr inbounds nuw i8, ptr %37, i64 16
  store i16 2, ptr %42, align 8, !tbaa !12
  %43 = getelementptr inbounds nuw i8, ptr %37, i64 18
  store i16 1, ptr %43, align 2, !tbaa !12
  %44 = getelementptr inbounds nuw i8, ptr %37, i64 24
  store ptr %11, ptr %44, align 8, !tbaa !10
  tail call void @lean_inc_heartbeat() #7
  %45 = tail call noalias ptr @mi_malloc_small(i64 noundef 32) #7
  %46 = icmp eq ptr %45, null
  br i1 %46, label %47, label %lean_alloc_ctor.exit

47:                                               ; preds = %lean_alloc_closure.exit23
  tail call void @lean_internal_panic_out_of_memory() #8
  unreachable

lean_alloc_ctor.exit:                             ; preds = %lean_alloc_closure.exit23
  %48 = getelementptr inbounds nuw i8, ptr %45, i64 4
  store i32 1, ptr %45, align 4, !tbaa !4
  store i32 196640, ptr %48, align 4
  %49 = getelementptr inbounds nuw i8, ptr %45, i64 8
  store ptr %12, ptr %49, align 8, !tbaa !10
  %50 = getelementptr inbounds nuw i8, ptr %45, i64 16
  store ptr %28, ptr %50, align 8, !tbaa !10
  %51 = getelementptr inbounds nuw i8, ptr %45, i64 24
  store ptr %37, ptr %51, align 8, !tbaa !10
  ret ptr %45
}